(ivmgStruct
vmgStruct
p0
(dp1
S'data'
p2
(dp3
S'network'
p4
(ivmgStruct
vmgSection
p5
(dp6
g2
(dp7
S'hw_addr'
p8
S'01:00:e1:ab:cd:e0'
p9
sS'traceroute'
p10
S'1'
p11
sS'firewall_rules'
p12
(ivmgStruct
vmgSection
p13
(dp14
g2
(dp15
S'firewall_rule1'
p16
S'iptables -more bla bla'
p17
sS'firewall_rule0'
p18
S'iptables -bla bla'
p19
ssS'name'
p20
g12
sbsS'nmap'
p21
g11
sS'hostname'
p22
S'HAL-9000@discovery.one'
p23
sS'ip_routing'
p24
g11
sS'dynamips'
p25
g11
sS'nat'
p26
g11
sS'netcat'
p27
g11
sS'tcpdump'
p28
g11
ssg20
g4
sbsS'gui'
p29
(ivmgStruct
vmgSection
p30
(dp31
g2
(dp32
S'chrome'
p33
g11
sS'firefox'
p34
g11
sS'mail_client'
p35
S'thunderbird'
p36
sS'wireshark'
p37
g11
ssg20
g29
sbsS'devel'
p38
(ivmgStruct
vmgSection
p39
(dp40
g2
(dp41
S'mpich2'
p42
g11
sS'python'
p43
g11
sS'openjdk'
p44
g11
sS'build-utils'
p45
g11
sS'eclipse'
p46
g11
sS'valgrind'
p47
g11
sS'kernel-devel'
p48
g11
sS'vim'
p49
g11
sS'tcl'
p50
g11
sS'emacs'
p51
g11
sS'openmp'
p52
g11
sS'php'
p53
g11
ssg20
g38
sbsS'hardware'
p54
(ivmgStruct
vmgSection
p55
(dp56
g2
(dp57
S'hdds'
p58
(ivmgStruct
vmgSection
p59
(dp60
g2
(dp61
S'hdd0'
p62
(ivmgStruct
vmgSection
p63
(dp64
g2
(dp65
S'name'
p66
S'hdd.vmdk'
p67
sS'pos'
p68
S'0:0'
p69
sS'scsi_index'
p70
S'0'
p71
sS'size'
p72
S'8GB'
p73
sS'type'
p74
S'scsi'
p75
sS'partitions'
p76
(ivmgStruct
vmgSection
p77
(dp78
g2
(dp79
S'partition0'
p80
(ivmgStruct
vmgSection
p81
(dp82
g2
(dp83
S'fs'
p84
S'ext4'
p85
sS'type'
p86
S'primary'
p87
sS'size'
p88
S'4096'
p89
ssg20
g80
sbsS'partition1'
p90
(ivmgStruct
vmgSection
p91
(dp92
g2
(dp93
S'type'
p94
S'extended'
p95
sS'size'
p96
S'3072'
p97
ssg20
g90
sbsS'partition2'
p98
(ivmgStruct
vmgSection
p99
(dp100
g2
(dp101
S'fs'
p102
S'ext4'
p103
sS'type'
p104
S'logical'
p105
sS'size'
p106
S'2048'
p107
ssg20
g98
sbsS'partition3'
p108
(ivmgStruct
vmgSection
p109
(dp110
g2
(dp111
S'fs'
p112
S'swap'
p113
sS'type'
p114
S'logical'
p115
sS'size'
p116
S'1024'
p117
ssg20
g108
sbssg20
g76
sbssg20
g62
sbssg20
g58
sbsS'eths'
p118
(ivmgStruct
vmgSection
p119
(dp120
g2
(dp121
S'eth0'
p122
(ivmgStruct
vmgSection
p123
(dp124
g2
(dp125
S'connected'
p126
g11
sS'type'
p127
S'nat'
p128
ssg20
g122
sbssg20
g118
sbsS'os'
p129
S'debian5-64'
p130
sS'ram'
p131
S'1024'
p132
sS'vm_id'
p133
S'TestMachine'
p134
sS'cd_drives'
p135
(ivmgStruct
vmgSection
p136
(dp137
g2
(dp138
S'cd_drive0'
p139
(ivmgStruct
vmgSection
p140
(dp141
g2
(dp142
S'path'
p143
S'/path/to/iso'
p144
sS'connected'
p145
g11
sS'pos'
p146
S'1:0'
p147
ssg20
g139
sbssg20
g135
sbsS'num_cpu'
p148
S'2'
p149
ssg20
g54
sbsS'services'
p150
(ivmgStruct
vmgSection
p151
(dp152
g2
(dp153
S'svn'
p154
g11
sS'httpd'
p155
g11
sS'ftp_server'
p156
g11
sS'dns_server'
p157
g11
sS'bittorrent'
p158
g11
sS'radius'
p159
g11
sS'mercurial'
p160
g11
sS'snmp'
p161
g11
sS'sshd'
p162
g11
sS'samba'
p163
g11
sS'git'
p164
g11
sS'mysql_server'
p165
g11
sS'ntp'
p166
g11
sS'squid_proxy'
p167
g11
sS'nfs'
p168
g11
sS'mail_server'
p169
g11
sS'dhcp_server'
p170
g11
sS'lustrefs'
p171
g11
ssg20
g150
sbsS'config'
p172
(ivmgStruct
vmgSection
p173
(dp174
g2
(dp175
S'bash_comp'
p176
g11
sS'repos'
p177
(ivmgStruct
vmgSection
p178
(dp179
g2
(dp180
S'repo0'
p181
S'/bla/bla'
p182
ssg20
g177
sbssg20
g172
sbsS'users'
p183
(ivmgStruct
vmgSection
p184
(dp185
g2
(dp186
S'user0'
p187
(ivmgStruct
vmgSection
p188
(dp189
g2
(dp190
S'passwd'
p191
S'alesia'
p192
sS'group'
p193
S'julius'
p194
sS'name'
p195
S'caesar'
p196
sS'perm'
p197
S'?'
p198
sS'home_dir'
p199
S'/home/caesar'
p200
ssg20
g187
sbsS'user1'
p201
(ivmgStruct
vmgSection
p202
(dp203
g2
(dp204
S'name'
p205
S'alex'
p206
ssg20
g201
sbssg20
g183
sbssb.