(ivmgStruct
vmgStruct
p0
(dp1
S'data'
p2
(dp3
S'network'
p4
(ivmgStruct
vmgSection
p5
(dp6
g2
(dp7
S'hw_addr'
p8
S'01:00:de:ad:be:ef'
p9
sS'traceroute'
p10
S'1'
p11
sS'firewall_rules'
p12
(ivmgStruct
vmgSection
p13
(dp14
g2
(dp15
S'firewall_rule1'
p16
S'iptables -t nat -A PREROUTING -i eth0 -p udp --dport 82 -j DNAT --to 10.0.0.1:82'
p17
sS'firewall_rule0'
p18
S'iptables -t nat -A PREROUTING -i eth0 -p tcp --dport 82 -j DNAT --to 10.0.0.1:82'
p19
ssS'name'
p20
g12
sbsS'hostname'
p21
S'HAL-9000@discovery.one'
p22
sS'ip_routing'
p23
g11
sS'nat'
p24
g11
sS'netcat'
p25
g11
sS'tcpdump'
p26
g11
ssg20
g4
sbsS'gui'
p27
(ivmgStruct
vmgSection
p28
(dp29
g2
(dp30
S'chrome'
p31
g11
sS'firefox'
p32
g11
sS'mail_client'
p33
S'thunderbird'
p34
sS'wireshark'
p35
g11
ssg20
g27
sbsS'devel'
p36
(ivmgStruct
vmgSection
p37
(dp38
g2
(dp39
S'python'
p40
g11
sS'build-utils'
p41
g11
sS'eclipse'
p42
g11
sS'valgrind'
p43
g11
sS'kernel-devel'
p44
g11
sS'vim'
p45
g11
sS'tcl'
p46
g11
sS'emacs'
p47
g11
sS'php'
p48
g11
ssg20
g36
sbsS'hardware'
p49
(ivmgStruct
vmgSection
p50
(dp51
g2
(dp52
S'hdds'
p53
(ivmgStruct
vmgSection
p54
(dp55
g2
(dp56
S'hdd0'
p57
(ivmgStruct
vmgSection
p58
(dp59
g2
(dp60
S'name'
p61
S'hdd.vmdk'
p62
sS'pos'
p63
S'0:0'
p64
sS'scsi_index'
p65
S'0'
p66
sS'size'
p67
S'8GB'
p68
sS'type'
p69
S'scsi'
p70
sS'partitions'
p71
(ivmgStruct
vmgSection
p72
(dp73
g2
(dp74
S'partition0'
p75
(ivmgStruct
vmgSection
p76
(dp77
g2
(dp78
S'fs'
p79
S'ext4'
p80
sS'type'
p81
S'primary'
p82
sS'size'
p83
S'5000'
p84
ssg20
g75
sbsS'partition1'
p85
(ivmgStruct
vmgSection
p86
(dp87
g2
(dp88
S'type'
p89
S'extended'
p90
sS'size'
p91
S'3072'
p92
ssg20
g85
sbsS'partition2'
p93
(ivmgStruct
vmgSection
p94
(dp95
g2
(dp96
S'fs'
p97
S'ext4'
p98
sS'type'
p99
S'logical'
p100
sS'size'
p101
S'2048'
p102
ssg20
g93
sbsS'partition3'
p103
(ivmgStruct
vmgSection
p104
(dp105
g2
(dp106
S'fs'
p107
S'swap'
p108
sS'type'
p109
S'logical'
p110
sS'size'
p111
S'1024'
p112
ssg20
g103
sbssg20
g71
sbssg20
g57
sbssg20
g53
sbsS'eths'
p113
(ivmgStruct
vmgSection
p114
(dp115
g2
(dp116
S'eth0'
p117
(ivmgStruct
vmgSection
p118
(dp119
g2
(dp120
S'connected'
p121
g11
sS'type'
p122
S'nat'
p123
ssg20
g117
sbssg20
g113
sbsS'os'
p124
S'debian5-64'
p125
sS'ram'
p126
S'512'
p127
sS'vm_id'
p128
S'TestMachine'
p129
sS'cd_drives'
p130
(ivmgStruct
vmgSection
p131
(dp132
g2
(dp133
S'cd_drive0'
p134
(ivmgStruct
vmgSection
p135
(dp136
g2
(dp137
S'path'
p138
S'/images/linux.iso'
p139
sS'connected'
p140
g11
sS'pos'
p141
S'1:0'
p142
ssg20
g134
sbssg20
g130
sbsS'num_cpu'
p143
S'2'
p144
ssg20
g49
sbsS'services'
p145
(ivmgStruct
vmgSection
p146
(dp147
g2
(dp148
S'svn'
p149
g11
sS'httpd'
p150
g11
sS'ftp_server'
p151
g11
sS'dns_server'
p152
g11
sS'sshd'
p153
g11
sS'git'
p154
g11
sS'dhcp_server'
p155
g11
ssg20
g145
sbsS'config'
p156
(ivmgStruct
vmgSection
p157
(dp158
g2
(dp159
S'bash_completion'
p160
g11
sS'repos'
p161
(ivmgStruct
vmgSection
p162
(dp163
g2
(dp164
S'repo0'
p165
S'deb http://http.us.debian.org/debian stable main contrib non-free'
p166
ssg20
g161
sbssg20
g156
sbsS'users'
p167
(ivmgStruct
vmgSection
p168
(dp169
g2
(dp170
S'user0'
p171
(ivmgStruct
vmgSection
p172
(dp173
g2
(dp174
S'passwd'
p175
S'alesia'
p176
sS'group'
p177
S'julius'
p178
sS'name'
p179
S'caesar'
p180
sS'home_dir'
p181
S'/home/caesar'
p182
ssg20
g171
sbsS'user1'
p183
(ivmgStruct
vmgSection
p184
(dp185
g2
(dp186
S'name'
p187
S'alex'
p188
ssg20
g183
sbssg20
g167
sbssb.